target datalayout = "e-m:e-p270:32:32-p271:32:32-p272:64:64-i64:64-i128:128-f80:128-n8:16:32:64-S128"
target triple = "x86_64-pc-linux-gnu"

%struct.dt_pthread_mutex_t = type { %union.pthread_mutex_t }
%union.pthread_mutex_t = type { %struct.__pthread_mutex_s }
%struct.__pthread_mutex_s = type { i32, i32, i32, i32, i32, i16, i16, %struct.__pthread_internal_list }
%struct.__pthread_internal_list = type { ptr, ptr }
%struct.dt_iop_module_t = type { i32, ptr, ptr, ptr, ptr, ptr, ptr, ptr, ptr, ptr, ptr, ptr, ptr, ptr, ptr, ptr, ptr, ptr, ptr, ptr, ptr, ptr, ptr, ptr, ptr, ptr, ptr, ptr, ptr, ptr, ptr, ptr, ptr, ptr, ptr, ptr, ptr, ptr, ptr, ptr, ptr, ptr, ptr, ptr, ptr, ptr, ptr, ptr, ptr, ptr, ptr, ptr, ptr, ptr, ptr, ptr, ptr, [20 x i8], i32, i32, i32, i32, i32, i32, i32, [8 x i8], [4 x float], [4 x float], [4 x float], [4 x float], [4 x float], [4 x float], ptr, %struct.dt_dev_histogram_stats_t, [4 x i32], i32, i32, ptr, i32, i32, ptr, ptr, i32, ptr, %struct.dt_pthread_mutex_t, ptr, ptr, ptr, ptr, %struct.anon, ptr, ptr, ptr, ptr, ptr, ptr, ptr, i32, ptr, ptr, ptr, ptr, ptr, ptr, ptr, i32, ptr, i32, [128 x i8], i32, ptr, ptr, i32, [12 x i8] }
%struct.dt_dev_histogram_stats_t = type { i32, i64, i32, i32 }
%struct.anon = type { %struct.anon.0, %struct.anon.1 }
%struct.anon.0 = type { ptr, ptr }
%struct.anon.1 = type { ptr, i32 }
%struct.dt_iop_rgblevels_gui_data_t = type { %struct.dt_iop_rgblevels_params_t, ptr, ptr, ptr, ptr, ptr, ptr, i32, i32, float, float, float, float, [4 x float], i32, double, double, i32, i32, float, i32, float, ptr, ptr, ptr }
%struct.dt_iop_rgblevels_params_t = type { i32, i32, [3 x [3 x float]] }

; Function Attrs: nounwind uwtable
define internal void @_turn_select_region_off(ptr noundef %0) #0 {
  %2 = alloca ptr, align 8
  %3 = alloca ptr, align 8
  store ptr %0, ptr %2, align 8, !tbaa !6
  call void @llvm.lifetime.start.p0(i64 8, ptr %3) #13
  %4 = load ptr, ptr %2, align 8, !tbaa !6
  %5 = getelementptr inbounds nuw %struct.dt_iop_module_t, ptr %4, i32 0, i32 83
  %6 = load ptr, ptr %5, align 16, !tbaa !21
  store ptr %6, ptr %3, align 8, !tbaa !37
  %7 = load ptr, ptr %3, align 8, !tbaa !37
  %8 = icmp ne ptr %7, null
  br i1 %8, label %9, label %22

9:                                                ; preds = %1
  %10 = load ptr, ptr %3, align 8, !tbaa !37
  %11 = getelementptr inbounds nuw %struct.dt_iop_rgblevels_gui_data_t, ptr %10, i32 0, i32 8
  store i32 0, ptr %11, align 4, !tbaa !39
  %12 = load ptr, ptr %3, align 8, !tbaa !37
  %13 = getelementptr inbounds nuw %struct.dt_iop_rgblevels_gui_data_t, ptr %12, i32 0, i32 14
  store i32 0, ptr %13, align 8, !tbaa !44
  %14 = load ptr, ptr %3, align 8, !tbaa !37
  %15 = getelementptr inbounds nuw %struct.dt_iop_rgblevels_gui_data_t, ptr %14, i32 0, i32 6
  %16 = load ptr, ptr %15, align 8, !tbaa !148
  %17 = call i64 @gtk_toggle_button_get_type() #14
  %18 = call ptr @g_type_check_instance_cast(ptr noundef %16, i64 noundef %17)
  %19 = load ptr, ptr %3, align 8, !tbaa !37
  %20 = getelementptr inbounds nuw %struct.dt_iop_rgblevels_gui_data_t, ptr %19, i32 0, i32 8
  %21 = load i32, ptr %20, align 4, !tbaa !39
  call void @gtk_toggle_button_set_active(ptr noundef %18, i32 noundef %21)
  br label %22

22:                                               ; preds = %9, %1
  call void @llvm.lifetime.end.p0(i64 8, ptr %3) #13
  ret void
}

; Function Attrs: nounwind uwtable
define internal void @_turn_selregion_picker_off(ptr noundef %0) #0 {
  %2 = alloca ptr, align 8
  store ptr %0, ptr %2, align 8, !tbaa !6
  %3 = load ptr, ptr %2, align 8, !tbaa !6
  call void @_turn_select_region_off(ptr noundef %3)
  %4 = load ptr, ptr %2, align 8, !tbaa !6
  call void @dt_iop_color_picker_reset(ptr noundef %4, i32 noundef 1)
  ret void
}

; Function Attrs: nounwind uwtable
define void @gui_reset(ptr noundef %0) #0 {
  %2 = alloca ptr, align 8
  %3 = alloca ptr, align 8
  store ptr %0, ptr %2, align 8, !tbaa !6
  call void @llvm.lifetime.start.p0(i64 8, ptr %3) #13
  %4 = load ptr, ptr %2, align 8, !tbaa !6
  %5 = getelementptr inbounds nuw %struct.dt_iop_module_t, ptr %4, i32 0, i32 83
  %6 = load ptr, ptr %5, align 16, !tbaa !21
  store ptr %6, ptr %3, align 8, !tbaa !37
  %7 = load ptr, ptr %2, align 8, !tbaa !6
  call void @_turn_selregion_picker_off(ptr noundef %7)
  %8 = load ptr, ptr %3, align 8, !tbaa !37
  %9 = getelementptr inbounds nuw %struct.dt_iop_rgblevels_gui_data_t, ptr %8, i32 0, i32 20
  store i32 0, ptr %9, align 4, !tbaa !129
  %10 = load ptr, ptr %3, align 8, !tbaa !37
  %11 = getelementptr inbounds nuw %struct.dt_iop_rgblevels_gui_data_t, ptr %10, i32 0, i32 2
  %12 = load ptr, ptr %11, align 8, !tbaa !149
  %13 = call i64 @gtk_widget_get_type() #14
  %14 = call ptr @g_type_check_instance_cast(ptr noundef %12, i64 noundef %13)
  call void @gtk_widget_queue_draw(ptr noundef %14)
  call void @llvm.lifetime.end.p0(i64 8, ptr %3) #13
  ret void
}