; Function Attrs: nounwind uwtable
define void @gui_reset(ptr noundef %0) local_unnamed_addr #1 {
  %2 = getelementptr inbounds nuw i8, ptr %0, i64 704
  %3 = load ptr, ptr %2, align 16, !tbaa !6
  %.not.i.i = icmp eq ptr %3, null
  br i1 %.not.i.i, label %_turn_selregion_picker_off.exit, label %4

4:                                                ; preds = %1
  %5 = getelementptr inbounds nuw i8, ptr %3, i64 100
  store i32 0, ptr %5, align 4, !tbaa !27
  %6 = getelementptr inbounds nuw i8, ptr %3, i64 136
  store i32 0, ptr %6, align 8, !tbaa !34
  %7 = getelementptr inbounds nuw i8, ptr %3, i64 88
  %8 = load ptr, ptr %7, align 8, !tbaa !113
  %9 = tail call i64 @gtk_toggle_button_get_type() #23
  %10 = tail call ptr @g_type_check_instance_cast(ptr noundef %8, i64 noundef %9) #21
  %11 = load i32, ptr %5, align 4, !tbaa !27
  tail call void @gtk_toggle_button_set_active(ptr noundef %10, i32 noundef %11) #21
  br label %_turn_selregion_picker_off.exit

_turn_selregion_picker_off.exit:                  ; preds = %1, %4
  tail call void @dt_iop_color_picker_reset(ptr noundef nonnull %0, i32 noundef 1) #21
  %12 = getelementptr inbounds nuw i8, ptr %3, i64 172
  store i32 0, ptr %12, align 4, !tbaa !116
  %13 = getelementptr inbounds nuw i8, ptr %3, i64 56
  %14 = load ptr, ptr %13, align 8, !tbaa !133
  %15 = tail call i64 @gtk_widget_get_type() #23
  %16 = tail call ptr @g_type_check_instance_cast(ptr noundef %14, i64 noundef %15) #21
  tail call void @gtk_widget_queue_draw(ptr noundef %16) #21
  ret void
}